; Function Attrs: nofree norecurse nosync nounwind memory(read, argmem: readwrite, inaccessiblemem: none) uwtable
define internal void @planar_rgb12be_to_uv(ptr noundef writeonly captures(none) %0, ptr noundef writeonly captures(none) %1, ptr noundef readonly captures(none) %2, i32 noundef %3, ptr noundef readonly captures(none) %4, ptr readnone captures(none) %5) #2 {
  %7 = getelementptr inbounds nuw i8, ptr %4, i64 12
  %8 = load i32, ptr %7, align 4, !tbaa !42
  %9 = getelementptr inbounds nuw i8, ptr %4, i64 16
  %10 = load i32, ptr %9, align 4, !tbaa !42
  %11 = getelementptr inbounds nuw i8, ptr %4, i64 20
  %12 = load i32, ptr %11, align 4, !tbaa !42
  %13 = getelementptr inbounds nuw i8, ptr %4, i64 24
  %14 = load i32, ptr %13, align 4, !tbaa !42
  %15 = getelementptr inbounds nuw i8, ptr %4, i64 28
  %16 = load i32, ptr %15, align 4, !tbaa !42
  %17 = getelementptr inbounds nuw i8, ptr %4, i64 32
  %18 = load i32, ptr %17, align 4, !tbaa !42
  %19 = icmp sgt i32 %3, 0
  br i1 %19, label %.lr.ph, label %planar_rgb16_to_uv.exit

.lr.ph:                                           ; preds = %6
  %20 = load ptr, ptr %2, align 8, !tbaa !46
  %21 = getelementptr inbounds nuw i8, ptr %2, i64 8
  %22 = load ptr, ptr %21, align 8, !tbaa !46
  %23 = getelementptr inbounds nuw i8, ptr %2, i64 16
  %24 = load ptr, ptr %23, align 8, !tbaa !46
  %wide.trip.count = zext nneg i32 %3 to i64
  br label %25

25:                                               ; preds = %.lr.ph, %25
  %indvars.iv = phi i64 [ 0, %.lr.ph ], [ %indvars.iv.next, %25 ]
  %26 = getelementptr inbounds nuw i16, ptr %20, i64 %indvars.iv
  %27 = load i16, ptr %26, align 1, !tbaa !34
  %28 = tail call i16 @llvm.bswap.i16(i16 %27)
  %29 = zext i16 %28 to i32
  %30 = getelementptr inbounds nuw i16, ptr %22, i64 %indvars.iv
  %31 = load i16, ptr %30, align 1, !tbaa !34
  %32 = tail call i16 @llvm.bswap.i16(i16 %31)
  %33 = zext i16 %32 to i32
  %34 = getelementptr inbounds nuw i16, ptr %24, i64 %indvars.iv
  %35 = load i16, ptr %34, align 1, !tbaa !34
  %36 = tail call i16 @llvm.bswap.i16(i16 %35)
  %37 = zext i16 %36 to i32
  %38 = mul nsw i32 %8, %37
  %39 = mul nsw i32 %10, %29
  %40 = mul nsw i32 %12, %33
  %41 = add i32 %39, 67112960
  %42 = add i32 %41, %40
  %43 = add i32 %42, %38
  %44 = lshr i32 %43, 13
  %45 = trunc i32 %44 to i16
  %46 = getelementptr inbounds nuw i16, ptr %0, i64 %indvars.iv
  store i16 %45, ptr %46, align 2, !tbaa !43
  %47 = mul nsw i32 %14, %37
  %48 = mul nsw i32 %16, %29
  %49 = mul nsw i32 %18, %33
  %50 = add i32 %48, 67112960
  %51 = add i32 %50, %49
  %52 = add i32 %51, %47
  %53 = lshr i32 %52, 13
  %54 = trunc i32 %53 to i16
  %55 = getelementptr inbounds nuw i16, ptr %1, i64 %indvars.iv
  store i16 %54, ptr %55, align 2, !tbaa !43
  %indvars.iv.next = add nuw nsw i64 %indvars.iv, 1
  %exitcond.not = icmp eq i64 %indvars.iv.next, %wide.trip.count
  br i1 %exitcond.not, label %planar_rgb16_to_uv.exit, label %25, !llvm.loop !47

planar_rgb16_to_uv.exit:                          ; preds = %25, %6
  ret void
}